; Function Attrs: nounwind uwtable
define void @Abc_TruthNpnTest(ptr noundef %0, i32 noundef %1, i32 noundef %2, i32 noundef %3, i32 noundef %4, i32 noundef %5) local_unnamed_addr #0 {
  %7 = tail call ptr @Abc_TtStoreLoad(ptr noundef %0, i32 noundef %2) #17
  %8 = icmp eq ptr %7, null
  br i1 %8, label %15, label %9

9:                                                ; preds = %6
  tail call void @Abc_TruthNpnPerform(ptr noundef nonnull %7, i32 noundef %1, i32 noundef %5)
  %.not = icmp eq i32 %3, 0
  br i1 %.not, label %14, label %10

10:                                               ; preds = %9
  %.not17 = icmp eq i32 %4, 0
  %.str.25..str.24 = select i1 %.not17, ptr @.str.25, ptr @.str.24
  %11 = tail call ptr @Extra_FileNameGenericAppend(ptr noundef %0, ptr noundef nonnull %.str.25..str.24) #17
  tail call void @Abc_TtStoreWrite(ptr noundef %11, ptr noundef nonnull %7, i32 noundef %4) #17
  %.not18 = icmp eq i32 %5, 0
  br i1 %.not18, label %14, label %12

12:                                               ; preds = %10
  %13 = tail call i32 (ptr, ...) @printf(ptr noundef nonnull dereferenceable(1) @.str.26, ptr noundef %11)
  br label %14

14:                                               ; preds = %10, %12, %9
  tail call void @Abc_TtStoreFree(ptr noundef nonnull %7, i32 noundef %2) #17
  br label %15

15:                                               ; preds = %6, %14
  ret void
}